target datalayout = "e-m:e-p270:32:32-p271:32:32-p272:64:64-i64:64-i128:128-f80:128-n8:16:32:64-S128"
target triple = "x86_64-pc-linux-gnu"

@__const.dlaruv_.mm = private unnamed_addr constant [512 x i32] [i32 494, i32 2637, i32 255, i32 2008, i32 1253, i32 3344, i32 4084, i32 1739, i32 3143, i32 3468, i32 688, i32 1657, i32 1238, i32 3166, i32 1292, i32 3422, i32 1270, i32 2016, i32 154, i32 2862, i32 697, i32 1706, i32 491, i32 931, i32 1444, i32 444, i32 3577, i32 3944, i32 2184, i32 1661, i32 3482, i32 657, i32 3023, i32 3618, i32 1267, i32 1828, i32 164, i32 3798, i32 3087, i32 2400, i32 2870, i32 3876, i32 1905, i32 1593, i32 1797, i32 1234, i32 3460, i32 328, i32 2861, i32 1950, i32 617, i32 2070, i32 3331, i32 769, i32 1558, i32 2412, i32 2800, i32 189, i32 287, i32 2045, i32 1227, i32 2838, i32 209, i32 2770, i32 3654, i32 3993, i32 192, i32 2253, i32 3491, i32 2889, i32 2857, i32 2094, i32 1818, i32 688, i32 1407, i32 634, i32 3231, i32 815, i32 3524, i32 1914, i32 516, i32 164, i32 303, i32 2144, i32 3480, i32 119, i32 3357, i32 837, i32 2826, i32 2332, i32 2089, i32 3780, i32 1700, i32 3712, i32 150, i32 2000, i32 3375, i32 1621, i32 3090, i32 3765, i32 1149, i32 3146, i32 33, i32 3082, i32 2741, i32 359, i32 3316, i32 1749, i32 185, i32 2784, i32 2202, i32 2199, i32 1364, i32 1244, i32 2020, i32 3160, i32 2785, i32 2772, i32 1217, i32 1822, i32 1245, i32 2252, i32 3904, i32 2774, i32 997, i32 2573, i32 1148, i32 545, i32 322, i32 789, i32 1440, i32 752, i32 2859, i32 123, i32 1848, i32 643, i32 2405, i32 2638, i32 2344, i32 46, i32 3814, i32 913, i32 3649, i32 339, i32 3808, i32 822, i32 2832, i32 3078, i32 3633, i32 2970, i32 637, i32 2249, i32 2081, i32 4019, i32 1478, i32 242, i32 481, i32 2075, i32 4058, i32 622, i32 3376, i32 812, i32 234, i32 641, i32 4005, i32 1122, i32 3135, i32 2640, i32 2302, i32 40, i32 1832, i32 2247, i32 2034, i32 2637, i32 1287, i32 1691, i32 496, i32 1597, i32 2394, i32 2584, i32 1843, i32 336, i32 1472, i32 2407, i32 433, i32 2096, i32 1761, i32 2810, i32 566, i32 442, i32 41, i32 1238, i32 1086, i32 603, i32 840, i32 3168, i32 1499, i32 1084, i32 3438, i32 2408, i32 1589, i32 2391, i32 288, i32 26, i32 512, i32 1456, i32 171, i32 1677, i32 2657, i32 2270, i32 2587, i32 2961, i32 1970, i32 1817, i32 676, i32 1410, i32 3723, i32 2803, i32 3185, i32 184, i32 663, i32 499, i32 3784, i32 1631, i32 1925, i32 3912, i32 1398, i32 1349, i32 1441, i32 2224, i32 2411, i32 1907, i32 3192, i32 2786, i32 382, i32 37, i32 759, i32 2948, i32 1862, i32 3802, i32 2423, i32 2051, i32 2295, i32 1332, i32 1832, i32 2405, i32 3638, i32 3661, i32 327, i32 3660, i32 716, i32 1842, i32 3987, i32 1368, i32 1848, i32 2366, i32 2508, i32 3754, i32 1766, i32 3572, i32 2893, i32 307, i32 1297, i32 3966, i32 758, i32 2598, i32 3406, i32 2922, i32 1038, i32 2934, i32 2091, i32 2451, i32 1580, i32 1958, i32 2055, i32 1507, i32 1078, i32 3273, i32 17, i32 854, i32 2916, i32 3971, i32 2889, i32 3831, i32 2621, i32 1541, i32 893, i32 736, i32 3992, i32 787, i32 2125, i32 2364, i32 2460, i32 257, i32 1574, i32 3912, i32 1216, i32 3248, i32 3401, i32 2124, i32 2762, i32 149, i32 2245, i32 166, i32 466, i32 4018, i32 1399, i32 190, i32 2879, i32 153, i32 2320, i32 18, i32 712, i32 2159, i32 2318, i32 2091, i32 3443, i32 1510, i32 449, i32 1956, i32 2201, i32 3137, i32 3399, i32 1321, i32 2271, i32 3667, i32 2703, i32 629, i32 2365, i32 2431, i32 1113, i32 3922, i32 2554, i32 184, i32 2099, i32 3228, i32 4012, i32 1921, i32 3452, i32 3901, i32 572, i32 3309, i32 3171, i32 817, i32 3039, i32 1696, i32 1256, i32 3715, i32 2077, i32 3019, i32 1497, i32 1101, i32 717, i32 51, i32 981, i32 1978, i32 1813, i32 3881, i32 76, i32 3846, i32 3694, i32 1682, i32 124, i32 1660, i32 3997, i32 479, i32 1141, i32 886, i32 3514, i32 1301, i32 3604, i32 1888, i32 1836, i32 1990, i32 2058, i32 692, i32 1194, i32 20, i32 3285, i32 2046, i32 2107, i32 3508, i32 3525, i32 3801, i32 2549, i32 1145, i32 2253, i32 305, i32 3301, i32 1065, i32 3133, i32 2913, i32 3285, i32 1241, i32 1197, i32 3729, i32 2501, i32 1673, i32 541, i32 2753, i32 949, i32 2361, i32 1165, i32 4081, i32 2725, i32 3305, i32 3069, i32 3617, i32 3733, i32 409, i32 2157, i32 1361, i32 3973, i32 1865, i32 2525, i32 1409, i32 3445, i32 3577, i32 77, i32 3761, i32 2149, i32 1449, i32 3005, i32 225, i32 85, i32 3673, i32 3117, i32 3089, i32 1349, i32 2057, i32 413, i32 65, i32 1845, i32 697, i32 3085, i32 3441, i32 1573, i32 3689, i32 2941, i32 929, i32 533, i32 2841, i32 4077, i32 721, i32 2821, i32 2249, i32 2397, i32 2817, i32 245, i32 1913, i32 1997, i32 3121, i32 997, i32 1833, i32 2877, i32 1633, i32 981, i32 2009, i32 941, i32 2449, i32 197, i32 2441, i32 285, i32 1473, i32 2741, i32 3129, i32 909, i32 2801, i32 421, i32 4073, i32 2813, i32 2337, i32 1429, i32 1177, i32 1901, i32 81, i32 1669, i32 2633, i32 2269, i32 129, i32 1141, i32 249, i32 3917, i32 2481, i32 3941, i32 2217, i32 2749, i32 3041, i32 1877, i32 345, i32 2861, i32 1809, i32 3141, i32 2825, i32 157, i32 2881, i32 3637, i32 1465, i32 2829, i32 2161, i32 3365, i32 361, i32 2685, i32 3745, i32 2325, i32 3609, i32 3821, i32 3537, i32 517, i32 3017, i32 2141, i32 1537], align 16

; Function Attrs: mustprogress nounwind uwtable
define void @dlaruv_(ptr noundef %0, ptr noundef %1, ptr noundef %2) #0 {
  %4 = alloca ptr, align 8
  %5 = alloca ptr, align 8
  %6 = alloca ptr, align 8
  %7 = alloca [512 x i32], align 16
  %8 = alloca i32, align 4
  %9 = alloca i32, align 4
  %10 = alloca i32, align 4
  %11 = alloca i32, align 4
  %12 = alloca i32, align 4
  %13 = alloca i32, align 4
  %14 = alloca i32, align 4
  %15 = alloca i32, align 4
  %16 = alloca i32, align 4
  %17 = alloca i32, align 4
  store ptr %0, ptr %4, align 8
  store ptr %1, ptr %5, align 8
  store ptr %2, ptr %6, align 8
  call void @llvm.memcpy.p0.p0.i64(ptr align 16 %7, ptr align 16 @__const.dlaruv_.mm, i64 2048, i1 false)
  %18 = load ptr, ptr %4, align 8
  %19 = getelementptr inbounds i32, ptr %18, i32 -1
  store ptr %19, ptr %4, align 8
  %20 = load ptr, ptr %6, align 8
  %21 = getelementptr inbounds double, ptr %20, i32 -1
  store ptr %21, ptr %6, align 8
  store i32 0, ptr %17, align 4
  store i32 0, ptr %16, align 4
  store i32 0, ptr %15, align 4
  store i32 0, ptr %14, align 4
  %22 = load ptr, ptr %4, align 8
  %23 = getelementptr inbounds i32, ptr %22, i64 1
  %24 = load i32, ptr %23, align 4
  store i32 %24, ptr %10, align 4
  %25 = load ptr, ptr %4, align 8
  %26 = getelementptr inbounds i32, ptr %25, i64 2
  %27 = load i32, ptr %26, align 4
  store i32 %27, ptr %11, align 4
  %28 = load ptr, ptr %4, align 8
  %29 = getelementptr inbounds i32, ptr %28, i64 3
  %30 = load i32, ptr %29, align 4
  store i32 %30, ptr %12, align 4
  %31 = load ptr, ptr %4, align 8
  %32 = getelementptr inbounds i32, ptr %31, i64 4
  %33 = load i32, ptr %32, align 4
  store i32 %33, ptr %13, align 4
  %34 = load ptr, ptr %5, align 8
  %35 = load i32, ptr %34, align 4
  %36 = icmp slt i32 %35, 128
  br i1 %36, label %37, label %40

37:                                               ; preds = %3
  %38 = load ptr, ptr %5, align 8
  %39 = load i32, ptr %38, align 4
  br label %41

40:                                               ; preds = %3
  br label %41

41:                                               ; preds = %40, %37
  %42 = phi i32 [ %39, %37 ], [ 128, %40 ]
  store i32 %42, ptr %8, align 4
  store i32 1, ptr %9, align 4
  br label %43

43:                                               ; preds = %166, %41
  %44 = load i32, ptr %9, align 4
  %45 = load i32, ptr %8, align 4
  %46 = icmp sle i32 %44, %45
  br i1 %46, label %47, label %169

47:                                               ; preds = %43
  %48 = load i32, ptr %13, align 4
  %49 = load i32, ptr %9, align 4
  %50 = add nsw i32 %49, 383
  %51 = sext i32 %50 to i64
  %52 = getelementptr inbounds [512 x i32], ptr %7, i64 0, i64 %51
  %53 = load i32, ptr %52, align 4
  %54 = mul nsw i32 %48, %53
  store i32 %54, ptr %17, align 4
  %55 = load i32, ptr %17, align 4
  %56 = sdiv i32 %55, 4096
  store i32 %56, ptr %16, align 4
  %57 = load i32, ptr %16, align 4
  %58 = shl i32 %57, 12
  %59 = load i32, ptr %17, align 4
  %60 = sub nsw i32 %59, %58
  store i32 %60, ptr %17, align 4
  %61 = load i32, ptr %16, align 4
  %62 = load i32, ptr %12, align 4
  %63 = load i32, ptr %9, align 4
  %64 = add nsw i32 %63, 383
  %65 = sext i32 %64 to i64
  %66 = getelementptr inbounds [512 x i32], ptr %7, i64 0, i64 %65
  %67 = load i32, ptr %66, align 4
  %68 = mul nsw i32 %62, %67
  %69 = add nsw i32 %61, %68
  %70 = load i32, ptr %13, align 4
  %71 = load i32, ptr %9, align 4
  %72 = add nsw i32 %71, 255
  %73 = sext i32 %72 to i64
  %74 = getelementptr inbounds [512 x i32], ptr %7, i64 0, i64 %73
  %75 = load i32, ptr %74, align 4
  %76 = mul nsw i32 %70, %75
  %77 = add nsw i32 %69, %76
  store i32 %77, ptr %16, align 4
  %78 = load i32, ptr %16, align 4
  %79 = sdiv i32 %78, 4096
  store i32 %79, ptr %15, align 4
  %80 = load i32, ptr %15, align 4
  %81 = shl i32 %80, 12
  %82 = load i32, ptr %16, align 4
  %83 = sub nsw i32 %82, %81
  store i32 %83, ptr %16, align 4
  %84 = load i32, ptr %15, align 4
  %85 = load i32, ptr %11, align 4
  %86 = load i32, ptr %9, align 4
  %87 = add nsw i32 %86, 383
  %88 = sext i32 %87 to i64
  %89 = getelementptr inbounds [512 x i32], ptr %7, i64 0, i64 %88
  %90 = load i32, ptr %89, align 4
  %91 = mul nsw i32 %85, %90
  %92 = add nsw i32 %84, %91
  %93 = load i32, ptr %12, align 4
  %94 = load i32, ptr %9, align 4
  %95 = add nsw i32 %94, 255
  %96 = sext i32 %95 to i64
  %97 = getelementptr inbounds [512 x i32], ptr %7, i64 0, i64 %96
  %98 = load i32, ptr %97, align 4
  %99 = mul nsw i32 %93, %98
  %100 = add nsw i32 %92, %99
  %101 = load i32, ptr %13, align 4
  %102 = load i32, ptr %9, align 4
  %103 = add nsw i32 %102, 127
  %104 = sext i32 %103 to i64
  %105 = getelementptr inbounds [512 x i32], ptr %7, i64 0, i64 %104
  %106 = load i32, ptr %105, align 4
  %107 = mul nsw i32 %101, %106
  %108 = add nsw i32 %100, %107
  store i32 %108, ptr %15, align 4
  %109 = load i32, ptr %15, align 4
  %110 = sdiv i32 %109, 4096
  store i32 %110, ptr %14, align 4
  %111 = load i32, ptr %14, align 4
  %112 = shl i32 %111, 12
  %113 = load i32, ptr %15, align 4
  %114 = sub nsw i32 %113, %112
  store i32 %114, ptr %15, align 4
  %115 = load i32, ptr %14, align 4
  %116 = load i32, ptr %10, align 4
  %117 = load i32, ptr %9, align 4
  %118 = add nsw i32 %117, 383
  %119 = sext i32 %118 to i64
  %120 = getelementptr inbounds [512 x i32], ptr %7, i64 0, i64 %119
  %121 = load i32, ptr %120, align 4
  %122 = mul nsw i32 %116, %121
  %123 = add nsw i32 %115, %122
  %124 = load i32, ptr %11, align 4
  %125 = load i32, ptr %9, align 4
  %126 = add nsw i32 %125, 255
  %127 = sext i32 %126 to i64
  %128 = getelementptr inbounds [512 x i32], ptr %7, i64 0, i64 %127
  %129 = load i32, ptr %128, align 4
  %130 = mul nsw i32 %124, %129
  %131 = add nsw i32 %123, %130
  %132 = load i32, ptr %12, align 4
  %133 = load i32, ptr %9, align 4
  %134 = add nsw i32 %133, 127
  %135 = sext i32 %134 to i64
  %136 = getelementptr inbounds [512 x i32], ptr %7, i64 0, i64 %135
  %137 = load i32, ptr %136, align 4
  %138 = mul nsw i32 %132, %137
  %139 = add nsw i32 %131, %138
  %140 = load i32, ptr %13, align 4
  %141 = load i32, ptr %9, align 4
  %142 = sub nsw i32 %141, 1
  %143 = sext i32 %142 to i64
  %144 = getelementptr inbounds [512 x i32], ptr %7, i64 0, i64 %143
  %145 = load i32, ptr %144, align 4
  %146 = mul nsw i32 %140, %145
  %147 = add nsw i32 %139, %146
  store i32 %147, ptr %14, align 4
  %148 = load i32, ptr %14, align 4
  %149 = srem i32 %148, 4096
  store i32 %149, ptr %14, align 4
  %150 = load i32, ptr %14, align 4
  %151 = sitofp i32 %150 to double
  %152 = load i32, ptr %15, align 4
  %153 = sitofp i32 %152 to double
  %154 = load i32, ptr %16, align 4
  %155 = sitofp i32 %154 to double
  %156 = load i32, ptr %17, align 4
  %157 = sitofp i32 %156 to double
  %158 = call double @llvm.fmuladd.f64(double %157, double 0x3F30000000000000, double %155)
  %159 = call double @llvm.fmuladd.f64(double %158, double 0x3F30000000000000, double %153)
  %160 = call double @llvm.fmuladd.f64(double %159, double 0x3F30000000000000, double %151)
  %161 = fmul double %160, 0x3F30000000000000
  %162 = load ptr, ptr %6, align 8
  %163 = load i32, ptr %9, align 4
  %164 = sext i32 %163 to i64
  %165 = getelementptr inbounds double, ptr %162, i64 %164
  store double %161, ptr %165, align 8
  br label %166

166:                                              ; preds = %47
  %167 = load i32, ptr %9, align 4
  %168 = add nsw i32 %167, 1
  store i32 %168, ptr %9, align 4
  br label %43, !llvm.loop !4

169:                                              ; preds = %43
  %170 = load i32, ptr %14, align 4
  %171 = load ptr, ptr %4, align 8
  %172 = getelementptr inbounds i32, ptr %171, i64 1
  store i32 %170, ptr %172, align 4
  %173 = load i32, ptr %15, align 4
  %174 = load ptr, ptr %4, align 8
  %175 = getelementptr inbounds i32, ptr %174, i64 2
  store i32 %173, ptr %175, align 4
  %176 = load i32, ptr %16, align 4
  %177 = load ptr, ptr %4, align 8
  %178 = getelementptr inbounds i32, ptr %177, i64 3
  store i32 %176, ptr %178, align 4
  %179 = load i32, ptr %17, align 4
  %180 = load ptr, ptr %4, align 8
  %181 = getelementptr inbounds i32, ptr %180, i64 4
  store i32 %179, ptr %181, align 4
  ret void
}

; Function Attrs: nocallback nofree nounwind willreturn memory(argmem: readwrite)
declare void @llvm.memcpy.p0.p0.i64(ptr noalias nocapture writeonly, ptr noalias nocapture readonly, i64, i1 immarg) #1

; Function Attrs: nocallback nofree nosync nounwind speculatable willreturn memory(none)
declare double @llvm.fmuladd.f64(double, double, double) #2


!llvm.module.flags = !{!0, !1, !2, !3}

!0 = !{i32 1, !"wchar_size", i32 4}
!1 = !{i32 8, !"PIC Level", i32 2}
!2 = !{i32 7, !"uwtable", i32 2}
!3 = !{i32 7, !"frame-pointer", i32 2}
!4 = distinct !{!4, !5}
!5 = !{!"llvm.loop.mustprogress"}
